(dp0
S'jared'
p1
(dp2
S'username'
p3
g1
sS'bio'
p4
S'Me'
p5
sS'password'
p6
S'24d17a5f34597151a5b57d3a4572ae51318a065d0dc6044ffa931107'
p7
sS'name'
p8
S'Jared Dembrun'
p9
sS'email'
p10
S'jared@gmail.com'
p11
ssS'rachel'
p12
(dp13
g3
g12
sg4
S'Wife'
p14
sg6
S'941dcc4b78e410319957685662c5bea7f89a727381839dd165167dcc'
p15
sg8
S'Rachel Dembrun'
p16
sg10
S'rachel@gmail.com'
p17
ssVnewuser
p18
(dp19
S'username'
p20
g18
sS'bio'
p21
VI am new
p22
sS'password'
p23
S'56605678e10676fb7aabc5a0d60c4b295d98c3abab9dfcd3824fcf84'
p24
sS'name'
p25
VNew User
p26
sS'email'
p27
Vnew@user.com
p28
ss.